target datalayout = "e-m:e-p270:32:32-p271:32:32-p272:64:64-i64:64-i128:128-f80:128-n8:16:32:64-S128"
target triple = "x86_64-pc-linux-gnu"

%class.Node = type <{ ptr, ptr, ptr, i32, i32, i32, i32, i32, i32, i32, [4 x i8] }>

; Function Attrs: mustprogress nounwind uwtable
define linkonce_odr hidden noundef zeroext i1 @_ZNK4Node12is_LoadStoreEv(ptr noundef nonnull align 8 dereferenceable(52) %0) #1 comdat align 2 {
  %2 = alloca ptr, align 8
  store ptr %0, ptr %2, align 8
  %3 = load ptr, ptr %2, align 8
  %4 = getelementptr inbounds %class.Node, ptr %3, i32 0, i32 8
  %5 = load i32, ptr %4, align 4
  %6 = and i32 %5, 255
  %7 = icmp eq i32 %6, 144
  ret i1 %7
}

; Function Attrs: mustprogress nounwind uwtable
define linkonce_odr hidden noundef ptr @_ZNK4Node8fast_outEPPS_(ptr noundef nonnull align 8 dereferenceable(52) %0, ptr noundef %1) #1 comdat align 2 {
  %3 = alloca ptr, align 8
  %4 = alloca ptr, align 8
  store ptr %0, ptr %3, align 8
  store ptr %1, ptr %4, align 8
  %5 = load ptr, ptr %4, align 8
  %6 = load ptr, ptr %5, align 8
  ret ptr %6
}

; Function Attrs: mustprogress nounwind uwtable
define linkonce_odr hidden noundef ptr @_ZNK4Node9fast_outsERPPS_(ptr noundef nonnull align 8 dereferenceable(52) %0, ptr noundef nonnull align 8 dereferenceable(8) %1) #1 comdat align 2 {
  %3 = alloca ptr, align 8
  %4 = alloca ptr, align 8
  %5 = alloca ptr, align 8
  store ptr %0, ptr %3, align 8
  store ptr %1, ptr %4, align 8
  %6 = load ptr, ptr %3, align 8
  %7 = getelementptr inbounds %class.Node, ptr %6, i32 0, i32 2
  %8 = load ptr, ptr %7, align 8
  store ptr %8, ptr %5, align 8
  %9 = load ptr, ptr %5, align 8
  %10 = getelementptr inbounds %class.Node, ptr %6, i32 0, i32 5
  %11 = load i32, ptr %10, align 8
  %12 = zext i32 %11 to i64
  %13 = getelementptr inbounds ptr, ptr %9, i64 %12
  %14 = load ptr, ptr %4, align 8
  store ptr %13, ptr %14, align 8
  %15 = load ptr, ptr %5, align 8
  ret ptr %15
}

; Function Attrs: mustprogress nounwind uwtable
define hidden noundef zeroext i1 @_ZN26ShenandoahBarrierC2Support16merge_point_safeEP4Node(ptr noundef %0) #1 align 2 {
  %2 = alloca i1, align 1
  %3 = alloca ptr, align 8
  %4 = alloca ptr, align 8
  %5 = alloca ptr, align 8
  %6 = alloca ptr, align 8
  store ptr %0, ptr %3, align 8
  %7 = load ptr, ptr %3, align 8
  %8 = call noundef ptr @_ZNK4Node9fast_outsERPPS_(ptr noundef nonnull align 8 dereferenceable(52) %7, ptr noundef nonnull align 8 dereferenceable(8) %4)
  store ptr %8, ptr %5, align 8
  br label %9

9:                                                ; preds = %21, %1
  %10 = load ptr, ptr %5, align 8
  %11 = load ptr, ptr %4, align 8
  %12 = icmp ult ptr %10, %11
  br i1 %12, label %13, label %24

13:                                               ; preds = %9
  %14 = load ptr, ptr %3, align 8
  %15 = load ptr, ptr %5, align 8
  %16 = call noundef ptr @_ZNK4Node8fast_outEPPS_(ptr noundef nonnull align 8 dereferenceable(52) %14, ptr noundef %15)
  store ptr %16, ptr %6, align 8
  %17 = load ptr, ptr %6, align 8
  %18 = call noundef zeroext i1 @_ZNK4Node12is_LoadStoreEv(ptr noundef nonnull align 8 dereferenceable(52) %17)
  br i1 %18, label %19, label %20

19:                                               ; preds = %13
  store i1 false, ptr %2, align 1
  br label %25

20:                                               ; preds = %13
  br label %21

21:                                               ; preds = %20
  %22 = load ptr, ptr %5, align 8
  %23 = getelementptr inbounds ptr, ptr %22, i32 1
  store ptr %23, ptr %5, align 8
  br label %9, !llvm.loop !54

24:                                               ; preds = %9
  store i1 true, ptr %2, align 1
  br label %25

25:                                               ; preds = %24, %19
  %26 = load i1, ptr %2, align 1
  ret i1 %26
}