; Function Attrs: mustprogress nofree norecurse nosync nounwind willreturn memory(read, inaccessiblemem: none) uwtable
define hidden noundef zeroext i1 @_ZN26ShenandoahBarrierC2Support16merge_point_safeEP4Node(ptr nocapture noundef readonly %0) local_unnamed_addr #4 align 2 {
  %2 = getelementptr inbounds i8, ptr %0, i64 16
  %3 = load ptr, ptr %2, align 8
  %4 = getelementptr inbounds i8, ptr %0, i64 32
  %5 = load i32, ptr %4, align 8
  %6 = zext i32 %5 to i64
  %7 = getelementptr inbounds ptr, ptr %3, i64 %6
  %8 = icmp eq i32 %5, 0
  br i1 %8, label %._crit_edge, label %.lr.ph

.lr.ph:                                           ; preds = %1, %.lr.ph
  %.078 = phi ptr [ %13, %.lr.ph ], [ %3, %1 ]
  %9 = load ptr, ptr %.078, align 8
  %10 = getelementptr inbounds i8, ptr %9, i64 44
  %11 = load i32, ptr %10, align 4
  %12 = and i32 %11, 255
  %.not11 = icmp ne i32 %12, 144
  %13 = getelementptr inbounds i8, ptr %.078, i64 8
  %.not = icmp ult ptr %13, %7
  %or.cond = select i1 %.not11, i1 %.not, i1 false
  br i1 %or.cond, label %.lr.ph, label %._crit_edge, !llvm.loop !59

._crit_edge:                                      ; preds = %.lr.ph, %1
  %.lcssa = phi i1 [ true, %1 ], [ %.not11, %.lr.ph ]
  ret i1 %.lcssa
}